; Function Attrs: nounwind uwtable
define i32 @Java_sun_font_FreetypeFontScaler_getNumGlyphsNative(ptr noundef %0, ptr noundef %1, i64 noundef %2) local_unnamed_addr #0 {
  %4 = inttoptr i64 %2 to ptr
  %5 = icmp eq i64 %2, 0
  br i1 %5, label %.split, label %10

.split:                                           ; preds = %3
  %6 = load ptr, ptr %0, align 8
  %7 = getelementptr inbounds i8, ptr %6, i64 488
  %8 = load ptr, ptr %7, align 8
  %9 = load ptr, ptr @invalidateScalerMID, align 8
  tail call void (ptr, ptr, ptr, ...) %8(ptr noundef nonnull %0, ptr noundef %1, ptr noundef %9) #19
  br label %40

10:                                               ; preds = %3
  %11 = getelementptr inbounds i8, ptr %4, i64 16
  %12 = load ptr, ptr %11, align 8
  %13 = icmp eq ptr %12, null
  br i1 %13, label %.split7, label %36

.split7:                                          ; preds = %10
  %14 = tail call i32 @FT_Done_Face(ptr noundef null) #19
  %15 = getelementptr inbounds i8, ptr %4, i64 8
  %16 = load ptr, ptr %15, align 8
  %17 = tail call i32 @FT_Done_FreeType(ptr noundef %16) #19
  %18 = getelementptr inbounds i8, ptr %4, i64 40
  %19 = load ptr, ptr %18, align 8
  %.not.i.i = icmp eq ptr %19, null
  br i1 %.not.i.i, label %24, label %20

20:                                               ; preds = %.split7
  %21 = load ptr, ptr %0, align 8
  %22 = getelementptr inbounds i8, ptr %21, i64 176
  %23 = load ptr, ptr %22, align 8
  tail call void %23(ptr noundef nonnull %0, ptr noundef nonnull %19) #19
  br label %24

24:                                               ; preds = %20, %.split7
  %25 = getelementptr inbounds i8, ptr %4, i64 48
  %26 = load ptr, ptr %25, align 8
  %.not15.i.i = icmp eq ptr %26, null
  br i1 %.not15.i.i, label %28, label %27

27:                                               ; preds = %24
  tail call void @free(ptr noundef nonnull %26) #19
  br label %28

28:                                               ; preds = %27, %24
  %29 = getelementptr inbounds i8, ptr %4, i64 24
  %30 = load ptr, ptr %29, align 8
  %.not16.i.i = icmp eq ptr %30, null
  br i1 %.not16.i.i, label %invalidateJavaScaler.exit, label %31

31:                                               ; preds = %28
  tail call void @free(ptr noundef nonnull %30) #19
  br label %invalidateJavaScaler.exit

invalidateJavaScaler.exit:                        ; preds = %28, %31
  tail call void @free(ptr noundef nonnull %4) #19
  %32 = load ptr, ptr %0, align 8
  %33 = getelementptr inbounds i8, ptr %32, i64 488
  %34 = load ptr, ptr %33, align 8
  %35 = load ptr, ptr @invalidateScalerMID, align 8
  tail call void (ptr, ptr, ptr, ...) %34(ptr noundef nonnull %0, ptr noundef %1, ptr noundef %35) #19
  br label %40

36:                                               ; preds = %10
  %37 = getelementptr inbounds i8, ptr %12, i64 32
  %38 = load i64, ptr %37, align 8
  %39 = trunc i64 %38 to i32
  br label %40

40:                                               ; preds = %.split, %invalidateJavaScaler.exit, %36
  %.0 = phi i32 [ %39, %36 ], [ 1, %invalidateJavaScaler.exit ], [ 1, %.split ]
  ret i32 %.0
}